; ModuleID = '30/2669.c'
source_filename = "30/2669.c"
target datalayout = "e-m:e-p270:32:32-p271:32:32-p272:64:64-i64:64-f80:128-n8:16:32:64-S128"
target triple = "x86_64-pc-linux-gnu"

@.str = private unnamed_addr constant [3 x i8] c"%d\00", align 1
@.str.1 = private unnamed_addr constant [7 x i8] c"error\0A\00", align 1
@.str.2 = private unnamed_addr constant [4 x i8] c"%d\0A\00", align 1

; Function Attrs: noinline nounwind uwtable
define dso_local i32 @main() #0 {
  %1 = alloca i32, align 4
  %2 = alloca i32, align 4
  %3 = alloca i32, align 4
  %4 = alloca i32, align 4
  %5 = alloca i32, align 4
  %6 = alloca i32, align 4
  %7 = alloca i32, align 4
  %8 = alloca i32, align 4
  %9 = alloca i32, align 4
  %10 = alloca i32, align 4
  store i32 0, i32* %1, align 4
  store i32 0, i32* %6, align 4
  store i32 0, i32* %7, align 4
  store i32 0, i32* %8, align 4
  store i32 0, i32* %9, align 4
  store i32 0, i32* %10, align 4
  %11 = call i32 (i8*, ...) @__isoc99_scanf(i8* getelementptr inbounds ([3 x i8], [3 x i8]* @.str, i64 0, i64 0), i32* %3)
  %12 = load i32, i32* %3, align 4
  %13 = icmp sge i32 %12, 100
  br i1 %13, label %14, label %16

14:                                               ; preds = %0
  %15 = call i32 (i8*, ...) @printf(i8* getelementptr inbounds ([7 x i8], [7 x i8]* @.str.1, i64 0, i64 0))
  br label %74

16:                                               ; preds = %0
  store i32 1, i32* %2, align 4
  br label %17

17:                                               ; preds = %70, %16
  %18 = load i32, i32* %2, align 4
  %19 = load i32, i32* %3, align 4
  %20 = icmp sle i32 %18, %19
  br i1 %20, label %21, label %73

21:                                               ; preds = %17
  %22 = load i32, i32* %9, align 4
  %23 = sitofp i32 %22 to double
  %24 = load i32, i32* %2, align 4
  %25 = sitofp i32 %24 to double
  %26 = call double @pow(double %25, double 2.000000e+00) #3
  %27 = fadd double %23, %26
  %28 = fptosi double %27 to i32
  store i32 %28, i32* %9, align 4
  %29 = load i32, i32* %2, align 4
  %30 = srem i32 %29, 7
  %31 = icmp eq i32 %30, 0
  br i1 %31, label %32, label %40

32:                                               ; preds = %21
  %33 = load i32, i32* %6, align 4
  %34 = sitofp i32 %33 to double
  %35 = load i32, i32* %2, align 4
  %36 = sitofp i32 %35 to double
  %37 = call double @pow(double %36, double 2.000000e+00) #3
  %38 = fadd double %34, %37
  %39 = fptosi double %38 to i32
  store i32 %39, i32* %6, align 4
  br label %69

40:                                               ; preds = %21
  %41 = load i32, i32* %2, align 4
  %42 = srem i32 %41, 10
  store i32 %42, i32* %4, align 4
  %43 = load i32, i32* %4, align 4
  %44 = icmp eq i32 %43, 7
  br i1 %44, label %45, label %53

45:                                               ; preds = %40
  %46 = load i32, i32* %7, align 4
  %47 = sitofp i32 %46 to double
  %48 = load i32, i32* %2, align 4
  %49 = sitofp i32 %48 to double
  %50 = call double @pow(double %49, double 2.000000e+00) #3
  %51 = fadd double %47, %50
  %52 = fptosi double %51 to i32
  store i32 %52, i32* %7, align 4
  br label %68

53:                                               ; preds = %40
  %54 = load i32, i32* %2, align 4
  %55 = srem i32 %54, 100
  %56 = sdiv i32 %55, 10
  store i32 %56, i32* %5, align 4
  %57 = load i32, i32* %5, align 4
  %58 = icmp eq i32 %57, 7
  br i1 %58, label %59, label %67

59:                                               ; preds = %53
  %60 = load i32, i32* %8, align 4
  %61 = sitofp i32 %60 to double
  %62 = load i32, i32* %2, align 4
  %63 = sitofp i32 %62 to double
  %64 = call double @pow(double %63, double 2.000000e+00) #3
  %65 = fadd double %61, %64
  %66 = fptosi double %65 to i32
  store i32 %66, i32* %8, align 4
  br label %67

67:                                               ; preds = %59, %53
  br label %68

68:                                               ; preds = %67, %45
  br label %69

69:                                               ; preds = %68, %32
  br label %70

70:                                               ; preds = %69
  %71 = load i32, i32* %2, align 4
  %72 = add nsw i32 %71, 1
  store i32 %72, i32* %2, align 4
  br label %17

73:                                               ; preds = %17
  br label %74

74:                                               ; preds = %73, %14
  %75 = load i32, i32* %9, align 4
  %76 = load i32, i32* %6, align 4
  %77 = load i32, i32* %7, align 4
  %78 = add nsw i32 %76, %77
  %79 = load i32, i32* %8, align 4
  %80 = add nsw i32 %78, %79
  %81 = sub nsw i32 %75, %80
  store i32 %81, i32* %10, align 4
  %82 = load i32, i32* %10, align 4
  %83 = call i32 (i8*, ...) @printf(i8* getelementptr inbounds ([4 x i8], [4 x i8]* @.str.2, i64 0, i64 0), i32 %82)
  ret i32 0
}

declare dso_local i32 @__isoc99_scanf(i8*, ...) #1

declare dso_local i32 @printf(i8*, ...) #1

; Function Attrs: nounwind
declare dso_local double @pow(double, double) #2


!llvm.module.flags = !{!0}
!llvm.ident = !{!1}

!0 = !{i32 1, !"wchar_size", i32 4}
!1 = !{!"clang version 10.0.0-4ubuntu1 "}
